target datalayout = "e-m:e-p270:32:32-p271:32:32-p272:64:64-i64:64-i128:128-f80:128-n8:16:32:64-S128"
target triple = "x86_64-unknown-linux-gnu"

%"class.std::shared_ptr" = type { %"class.std::__shared_ptr" }
%"class.std::__shared_ptr" = type { ptr, %"class.std::__shared_count" }
%"class.std::__shared_count" = type { ptr }
%"struct.absl::container_internal::internal_compressed_tuple::Storage" = type { %"class.absl::container_internal::CommonFields" }
%"class.absl::container_internal::CommonFields" = type { ptr, ptr, i64, i64 }
%"class.absl::container_internal::Tracked" = type { i32, %"class.std::shared_ptr.57", %"class.std::shared_ptr.57" }
%"class.std::shared_ptr.57" = type { %"class.std::__shared_ptr.58" }
%"class.std::__shared_ptr.58" = type { ptr, %"class.std::__shared_count" }
%"class.absl::container_internal::(anonymous namespace)::CheckedAlloc.136" = type { i64, %"class.std::shared_ptr" }
%"class.absl::container_internal::raw_hash_set.137" = type { %"class.absl::container_internal::CompressedTuple.138" }
%"class.absl::container_internal::CompressedTuple.138" = type { %"struct.absl::container_internal::internal_compressed_tuple::CompressedTupleImpl.139" }
%"struct.absl::container_internal::internal_compressed_tuple::CompressedTupleImpl.139" = type { %"struct.absl::container_internal::internal_compressed_tuple::Storage", %"struct.absl::container_internal::internal_compressed_tuple::Storage.140" }
%"struct.absl::container_internal::internal_compressed_tuple::Storage.140" = type { %"class.absl::container_internal::(anonymous namespace)::CheckedAlloc.136" }

; Function Attrs: mustprogress nounwind uwtable
define linkonce_odr dso_local noundef ptr @_ZNKSt12__shared_ptrImLN9__gnu_cxx12_Lock_policyE2EE3getEv(ptr noundef nonnull align 8 dereferenceable(16) %this) #5 comdat align 2 {
entry:
  %this.addr = alloca ptr, align 8
  store ptr %this, ptr %this.addr, align 8
  %this1 = load ptr, ptr %this.addr, align 8
  %_M_ptr = getelementptr inbounds %"class.std::__shared_ptr.58", ptr %this1, i32 0, i32 0
  %0 = load ptr, ptr %_M_ptr, align 8
  ret ptr %0
}

; Function Attrs: mustprogress nounwind uwtable
define linkonce_odr dso_local void @_ZNSt14__shared_countILN9__gnu_cxx12_Lock_policyE2EE7_M_swapERS2_(ptr noundef nonnull align 8 dereferenceable(8) %this, ptr noundef nonnull align 8 dereferenceable(8) %__r) #5 comdat align 2 {
entry:
  %this.addr = alloca ptr, align 8
  %__r.addr = alloca ptr, align 8
  %__tmp = alloca ptr, align 8
  store ptr %this, ptr %this.addr, align 8
  store ptr %__r, ptr %__r.addr, align 8
  %this1 = load ptr, ptr %this.addr, align 8
  %0 = load ptr, ptr %__r.addr, align 8
  %_M_pi = getelementptr inbounds %"class.std::__shared_count", ptr %0, i32 0, i32 0
  %1 = load ptr, ptr %_M_pi, align 8
  store ptr %1, ptr %__tmp, align 8
  %_M_pi2 = getelementptr inbounds %"class.std::__shared_count", ptr %this1, i32 0, i32 0
  %2 = load ptr, ptr %_M_pi2, align 8
  %3 = load ptr, ptr %__r.addr, align 8
  %_M_pi3 = getelementptr inbounds %"class.std::__shared_count", ptr %3, i32 0, i32 0
  store ptr %2, ptr %_M_pi3, align 8
  %4 = load ptr, ptr %__tmp, align 8
  %_M_pi4 = getelementptr inbounds %"class.std::__shared_count", ptr %this1, i32 0, i32 0
  store ptr %4, ptr %_M_pi4, align 8
  ret void
}

; Function Attrs: mustprogress nounwind uwtable
define linkonce_odr dso_local void @_ZNSt14__shared_countILN9__gnu_cxx12_Lock_policyE2EEC2Ev(ptr noundef nonnull align 8 dereferenceable(8) %this) unnamed_addr #5 comdat align 2 {
entry:
  %this.addr = alloca ptr, align 8
  store ptr %this, ptr %this.addr, align 8
  %this1 = load ptr, ptr %this.addr, align 8
  %_M_pi = getelementptr inbounds %"class.std::__shared_count", ptr %this1, i32 0, i32 0
  store ptr null, ptr %_M_pi, align 8
  ret void
}

; Function Attrs: mustprogress nounwind uwtable
define linkonce_odr dso_local noundef ptr @_ZNKSt19__shared_ptr_accessImLN9__gnu_cxx12_Lock_policyE2ELb0ELb0EE6_M_getEv(ptr noundef nonnull align 1 dereferenceable(1) %this) #5 comdat align 2 {
entry:
  %this.addr = alloca ptr, align 8
  store ptr %this, ptr %this.addr, align 8
  %this1 = load ptr, ptr %this.addr, align 8
  %call = call noundef ptr @_ZNKSt12__shared_ptrImLN9__gnu_cxx12_Lock_policyE2EE3getEv(ptr noundef nonnull align 8 dereferenceable(16) %this1) #3
  ret ptr %call
}

; Function Attrs: mustprogress nounwind uwtable
define linkonce_odr dso_local void @_ZNSt12__shared_ptrImLN9__gnu_cxx12_Lock_policyE2EEC2EOS2_(ptr noundef nonnull align 8 dereferenceable(16) %this, ptr noundef nonnull align 8 dereferenceable(16) %__r) unnamed_addr #5 comdat align 2 {
entry:
  %this.addr = alloca ptr, align 8
  %__r.addr = alloca ptr, align 8
  store ptr %this, ptr %this.addr, align 8
  store ptr %__r, ptr %__r.addr, align 8
  %this1 = load ptr, ptr %this.addr, align 8
  %_M_ptr = getelementptr inbounds %"class.std::__shared_ptr.58", ptr %this1, i32 0, i32 0
  %0 = load ptr, ptr %__r.addr, align 8
  %_M_ptr2 = getelementptr inbounds %"class.std::__shared_ptr.58", ptr %0, i32 0, i32 0
  %1 = load ptr, ptr %_M_ptr2, align 8
  store ptr %1, ptr %_M_ptr, align 8
  %_M_refcount = getelementptr inbounds %"class.std::__shared_ptr.58", ptr %this1, i32 0, i32 1
  call void @_ZNSt14__shared_countILN9__gnu_cxx12_Lock_policyE2EEC2Ev(ptr noundef nonnull align 8 dereferenceable(8) %_M_refcount) #3
  %_M_refcount3 = getelementptr inbounds %"class.std::__shared_ptr.58", ptr %this1, i32 0, i32 1
  %2 = load ptr, ptr %__r.addr, align 8
  %_M_refcount4 = getelementptr inbounds %"class.std::__shared_ptr.58", ptr %2, i32 0, i32 1
  call void @_ZNSt14__shared_countILN9__gnu_cxx12_Lock_policyE2EE7_M_swapERS2_(ptr noundef nonnull align 8 dereferenceable(8) %_M_refcount3, ptr noundef nonnull align 8 dereferenceable(8) %_M_refcount4) #3
  %3 = load ptr, ptr %__r.addr, align 8
  %_M_ptr5 = getelementptr inbounds %"class.std::__shared_ptr.58", ptr %3, i32 0, i32 0
  store ptr null, ptr %_M_ptr5, align 8
  ret void
}

; Function Attrs: mustprogress nounwind uwtable
define linkonce_odr dso_local noundef nonnull align 8 dereferenceable(8) ptr @_ZNKSt19__shared_ptr_accessImLN9__gnu_cxx12_Lock_policyE2ELb0ELb0EEdeEv(ptr noundef nonnull align 1 dereferenceable(1) %this) #5 comdat align 2 {
entry:
  %this.addr = alloca ptr, align 8
  store ptr %this, ptr %this.addr, align 8
  %this1 = load ptr, ptr %this.addr, align 8
  br label %do.body

do.body:                                          ; preds = %entry
  br label %do.cond

do.cond:                                          ; preds = %do.body
  br label %do.end

do.end:                                           ; preds = %do.cond
  %call = call noundef ptr @_ZNKSt19__shared_ptr_accessImLN9__gnu_cxx12_Lock_policyE2ELb0ELb0EE6_M_getEv(ptr noundef nonnull align 1 dereferenceable(1) %this1) #3
  ret ptr %call
}

; Function Attrs: mustprogress nounwind uwtable
define linkonce_odr dso_local void @_ZNSt10shared_ptrImEC2EOS0_(ptr noundef nonnull align 8 dereferenceable(16) %this, ptr noundef nonnull align 8 dereferenceable(16) %__r) unnamed_addr #5 comdat align 2 {
entry:
  %this.addr = alloca ptr, align 8
  %__r.addr = alloca ptr, align 8
  store ptr %this, ptr %this.addr, align 8
  store ptr %__r, ptr %__r.addr, align 8
  %this1 = load ptr, ptr %this.addr, align 8
  %0 = load ptr, ptr %__r.addr, align 8
  call void @_ZNSt12__shared_ptrImLN9__gnu_cxx12_Lock_policyE2EEC2EOS2_(ptr noundef nonnull align 8 dereferenceable(16) %this1, ptr noundef nonnull align 8 dereferenceable(16) %0) #3
  ret void
}

; Function Attrs: mustprogress nounwind uwtable
define linkonce_odr dso_local void @_ZSt8_DestroyIN4absl18container_internal7TrackedIiEEEvPT_(ptr noundef %__pointer) #5 comdat {
entry:
  %__pointer.addr = alloca ptr, align 8
  store ptr %__pointer, ptr %__pointer.addr, align 8
  %0 = load ptr, ptr %__pointer.addr, align 8
  call void @_ZN4absl18container_internal7TrackedIiED2Ev(ptr noundef nonnull align 8 dereferenceable(40) %0) #3
  ret void
}

; Function Attrs: mustprogress nounwind uwtable
define linkonce_odr dso_local void @_ZN4absl18container_internal7TrackedIiEC2EOS2_(ptr noundef nonnull align 8 dereferenceable(40) %this, ptr noundef nonnull align 8 dereferenceable(40) %that) unnamed_addr #5 comdat align 2 {
entry:
  %this.addr = alloca ptr, align 8
  %that.addr = alloca ptr, align 8
  store ptr %this, ptr %this.addr, align 8
  store ptr %that, ptr %that.addr, align 8
  %this1 = load ptr, ptr %this.addr, align 8
  %val_ = getelementptr inbounds %"class.absl::container_internal::Tracked", ptr %this1, i32 0, i32 0
  %0 = load ptr, ptr %that.addr, align 8
  %val_2 = getelementptr inbounds %"class.absl::container_internal::Tracked", ptr %0, i32 0, i32 0
  %1 = load i32, ptr %val_2, align 4
  store i32 %1, ptr %val_, align 8
  %num_moves_ = getelementptr inbounds %"class.absl::container_internal::Tracked", ptr %this1, i32 0, i32 1
  %2 = load ptr, ptr %that.addr, align 8
  %num_moves_3 = getelementptr inbounds %"class.absl::container_internal::Tracked", ptr %2, i32 0, i32 1
  call void @_ZNSt10shared_ptrImEC2EOS0_(ptr noundef nonnull align 8 dereferenceable(16) %num_moves_, ptr noundef nonnull align 8 dereferenceable(16) %num_moves_3) #3
  %num_copies_ = getelementptr inbounds %"class.absl::container_internal::Tracked", ptr %this1, i32 0, i32 2
  %3 = load ptr, ptr %that.addr, align 8
  %num_copies_4 = getelementptr inbounds %"class.absl::container_internal::Tracked", ptr %3, i32 0, i32 2
  call void @_ZNSt10shared_ptrImEC2EOS0_(ptr noundef nonnull align 8 dereferenceable(16) %num_copies_, ptr noundef nonnull align 8 dereferenceable(16) %num_copies_4) #3
  %num_moves_5 = getelementptr inbounds %"class.absl::container_internal::Tracked", ptr %this1, i32 0, i32 1
  %call = call noundef nonnull align 8 dereferenceable(8) ptr @_ZNKSt19__shared_ptr_accessImLN9__gnu_cxx12_Lock_policyE2ELb0ELb0EEdeEv(ptr noundef nonnull align 1 dereferenceable(1) %num_moves_5) #3
  %4 = load i64, ptr %call, align 8
  %inc = add i64 %4, 1
  store i64 %inc, ptr %call, align 8
  ret void
}

; Function Attrs: mustprogress nounwind uwtable
define internal void @_ZNSt16allocator_traitsIN4absl18container_internal12_GLOBAL__N_112CheckedAllocINS1_7TrackedIiEELi5EEEE10_S_destroyIS6_S5_EEvRT_PT0_z(ptr noundef nonnull align 8 dereferenceable(24) %0, ptr noundef %__p, ...) #5 align 2 {
entry:
  %.addr = alloca ptr, align 8
  %__p.addr = alloca ptr, align 8
  store ptr %0, ptr %.addr, align 8
  store ptr %__p, ptr %__p.addr, align 8
  %1 = load ptr, ptr %__p.addr, align 8
  call void @_ZSt8_DestroyIN4absl18container_internal7TrackedIiEEEvPT_(ptr noundef %1)
  ret void
}

; Function Attrs: mustprogress uwtable
define internal void @_ZNSt16allocator_traitsIN4absl18container_internal12_GLOBAL__N_112CheckedAllocINS1_7TrackedIiEELi5EEEE12_S_constructIS5_JS5_EEENSt9enable_ifIXsr6__and_ISt6__and_IJSt6__not_INS7_18__construct_helperIT_JDpT0_EE4typeEESt16is_constructibleISD_JSF_EEEEEE5valueEvE4typeERS6_PSD_DpOSE_(ptr noundef nonnull align 8 dereferenceable(24) %0, ptr noundef %__p, ptr noundef nonnull align 8 dereferenceable(40) %__args) #4 align 2 {
entry:
  %.addr = alloca ptr, align 8
  %__p.addr = alloca ptr, align 8
  %__args.addr = alloca ptr, align 8
  store ptr %0, ptr %.addr, align 8
  store ptr %__p, ptr %__p.addr, align 8
  store ptr %__args, ptr %__args.addr, align 8
  %1 = load ptr, ptr %__p.addr, align 8
  %2 = load ptr, ptr %__args.addr, align 8
  call void @_ZN4absl18container_internal7TrackedIiEC2EOS2_(ptr noundef nonnull align 8 dereferenceable(40) %1, ptr noundef nonnull align 8 dereferenceable(40) %2)
  ret void
}

; Function Attrs: mustprogress nounwind uwtable
define internal void @_ZNSt16allocator_traitsIN4absl18container_internal12_GLOBAL__N_112CheckedAllocINS1_7TrackedIiEELi5EEEE7destroyIS5_EEvRS6_PT_(ptr noundef nonnull align 8 dereferenceable(24) %__a, ptr noundef %__p) #5 align 2 {
entry:
  %__a.addr = alloca ptr, align 8
  %__p.addr = alloca ptr, align 8
  store ptr %__a, ptr %__a.addr, align 8
  store ptr %__p, ptr %__p.addr, align 8
  %0 = load ptr, ptr %__a.addr, align 8
  %1 = load ptr, ptr %__p.addr, align 8
  call void (ptr, ptr, ...) @_ZNSt16allocator_traitsIN4absl18container_internal12_GLOBAL__N_112CheckedAllocINS1_7TrackedIiEELi5EEEE10_S_destroyIS6_S5_EEvRT_PT0_z(ptr noundef nonnull align 8 dereferenceable(24) %0, ptr noundef %1, i32 noundef 0) #3
  ret void
}

; Function Attrs: mustprogress uwtable
define internal void @_ZNSt16allocator_traitsIN4absl18container_internal12_GLOBAL__N_112CheckedAllocINS1_7TrackedIiEELi5EEEE9constructIS5_JS5_EEEDTcl12_S_constructfp_fp0_spclsr3stdE7forwardIT0_Efp1_EEERS6_PT_DpOS9_(ptr noundef nonnull align 8 dereferenceable(24) %__a, ptr noundef %__p, ptr noundef nonnull align 8 dereferenceable(40) %__args) #4 align 2 {
entry:
  %__a.addr = alloca ptr, align 8
  %__p.addr = alloca ptr, align 8
  %__args.addr = alloca ptr, align 8
  store ptr %__a, ptr %__a.addr, align 8
  store ptr %__p, ptr %__p.addr, align 8
  store ptr %__args, ptr %__args.addr, align 8
  %0 = load ptr, ptr %__a.addr, align 8
  %1 = load ptr, ptr %__p.addr, align 8
  %2 = load ptr, ptr %__args.addr, align 8
  call void @_ZNSt16allocator_traitsIN4absl18container_internal12_GLOBAL__N_112CheckedAllocINS1_7TrackedIiEELi5EEEE12_S_constructIS5_JS5_EEENSt9enable_ifIXsr6__and_ISt6__and_IJSt6__not_INS7_18__construct_helperIT_JDpT0_EE4typeEESt16is_constructibleISD_JSF_EEEEEE5valueEvE4typeERS6_PSD_DpOSE_(ptr noundef nonnull align 8 dereferenceable(24) %0, ptr noundef %1, ptr noundef nonnull align 8 dereferenceable(40) %2)
  ret void
}

; Function Attrs: mustprogress nounwind uwtable
define internal void @_ZN4absl18container_internal12_GLOBAL__N_16Policy7destroyINS1_12CheckedAllocINS0_7TrackedIiEELi5EEEEEvPT_PS6_(ptr noundef %alloc, ptr noundef %slot) #5 align 2 {
entry:
  %alloc.addr = alloca ptr, align 8
  %slot.addr = alloca ptr, align 8
  store ptr %alloc, ptr %alloc.addr, align 8
  store ptr %slot, ptr %slot.addr, align 8
  %0 = load ptr, ptr %alloc.addr, align 8
  %1 = load ptr, ptr %slot.addr, align 8
  call void @_ZNSt16allocator_traitsIN4absl18container_internal12_GLOBAL__N_112CheckedAllocINS1_7TrackedIiEELi5EEEE7destroyIS5_EEvRS6_PT_(ptr noundef nonnull align 8 dereferenceable(24) %0, ptr noundef %1) #3
  ret void
}

; Function Attrs: mustprogress uwtable
define internal void @_ZN4absl18container_internal12_GLOBAL__N_16Policy9constructINS1_12CheckedAllocINS0_7TrackedIiEELi5EEEJS6_EEEvPT_PS6_DpOT0_(ptr noundef %alloc, ptr noundef %slot, ptr noundef nonnull align 8 dereferenceable(40) %args) #4 align 2 {
entry:
  %alloc.addr = alloca ptr, align 8
  %slot.addr = alloca ptr, align 8
  %args.addr = alloca ptr, align 8
  store ptr %alloc, ptr %alloc.addr, align 8
  store ptr %slot, ptr %slot.addr, align 8
  store ptr %args, ptr %args.addr, align 8
  %0 = load ptr, ptr %alloc.addr, align 8
  %1 = load ptr, ptr %slot.addr, align 8
  %2 = load ptr, ptr %args.addr, align 8
  call void @_ZNSt16allocator_traitsIN4absl18container_internal12_GLOBAL__N_112CheckedAllocINS1_7TrackedIiEELi5EEEE9constructIS5_JS5_EEEDTcl12_S_constructfp_fp0_spclsr3stdE7forwardIT0_Efp1_EEERS6_PT_DpOS9_(ptr noundef nonnull align 8 dereferenceable(24) %0, ptr noundef %1, ptr noundef nonnull align 8 dereferenceable(40) %2)
  ret void
}

; Function Attrs: mustprogress uwtable
define internal void @_ZN4absl18container_internal12_GLOBAL__N_16Policy8transferINS1_12CheckedAllocINS0_7TrackedIiEELi5EEEEEvPT_PS6_SA_(ptr noundef %alloc, ptr noundef %new_slot, ptr noundef %old_slot) #4 align 2 {
entry:
  %alloc.addr = alloca ptr, align 8
  %new_slot.addr = alloca ptr, align 8
  %old_slot.addr = alloca ptr, align 8
  store ptr %alloc, ptr %alloc.addr, align 8
  store ptr %new_slot, ptr %new_slot.addr, align 8
  store ptr %old_slot, ptr %old_slot.addr, align 8
  %0 = load ptr, ptr %alloc.addr, align 8
  %1 = load ptr, ptr %new_slot.addr, align 8
  %2 = load ptr, ptr %old_slot.addr, align 8
  call void @_ZN4absl18container_internal12_GLOBAL__N_16Policy9constructINS1_12CheckedAllocINS0_7TrackedIiEELi5EEEJS6_EEEvPT_PS6_DpOT0_(ptr noundef %0, ptr noundef %1, ptr noundef nonnull align 8 dereferenceable(40) %2)
  %3 = load ptr, ptr %alloc.addr, align 8
  %4 = load ptr, ptr %old_slot.addr, align 8
  call void @_ZN4absl18container_internal12_GLOBAL__N_16Policy7destroyINS1_12CheckedAllocINS0_7TrackedIiEELi5EEEEEvPT_PS6_(ptr noundef %3, ptr noundef %4)
  ret void
}

; Function Attrs: mustprogress nounwind uwtable
define internal noundef nonnull align 8 dereferenceable(24) ptr @_ZNR4absl18container_internal25internal_compressed_tuple7StorageINS0_12_GLOBAL__N_112CheckedAllocINS0_7TrackedIiEELi5EEELm3ELb0EE3getEv(ptr noundef nonnull align 8 dereferenceable(24) %this) #5 align 2 {
entry:
  %this.addr = alloca ptr, align 8
  store ptr %this, ptr %this.addr, align 8
  %this1 = load ptr, ptr %this.addr, align 8
  %value = getelementptr inbounds %"struct.absl::container_internal::internal_compressed_tuple::Storage.140", ptr %this1, i32 0, i32 0
  ret ptr %value
}

; Function Attrs: mustprogress uwtable
define internal void @_ZN4absl18container_internal20common_policy_traitsINS0_12_GLOBAL__N_16PolicyEvE13transfer_implINS2_12CheckedAllocINS0_7TrackedIiEELi5EEES3_EEDTclsrT0_8transferfp_fp0_fp1_EEPT_PS8_SE_NS4_5Rank0E(ptr noundef %alloc, ptr noundef %new_slot, ptr noundef %old_slot) #4 align 2 {
entry:
  %alloc.addr = alloca ptr, align 8
  %new_slot.addr = alloca ptr, align 8
  %old_slot.addr = alloca ptr, align 8
  store ptr %alloc, ptr %alloc.addr, align 8
  store ptr %new_slot, ptr %new_slot.addr, align 8
  store ptr %old_slot, ptr %old_slot.addr, align 8
  %0 = load ptr, ptr %alloc.addr, align 8
  %1 = load ptr, ptr %new_slot.addr, align 8
  %2 = load ptr, ptr %old_slot.addr, align 8
  call void @_ZN4absl18container_internal12_GLOBAL__N_16Policy8transferINS1_12CheckedAllocINS0_7TrackedIiEELi5EEEEEvPT_PS6_SA_(ptr noundef %0, ptr noundef %1, ptr noundef %2)
  ret void
}

; Function Attrs: mustprogress uwtable
define internal noundef nonnull align 8 dereferenceable(24) ptr @_ZNR4absl18container_internal15CompressedTupleIJNS0_12CommonFieldsENS0_12_GLOBAL__N_18IdentityESt8equal_toIiENS3_12CheckedAllocINS0_7TrackedIiEELi5EEEEE3getILi3EEERNS0_25internal_compressed_tuple4ElemISB_XT_EE4typeEv(ptr noundef nonnull align 8 dereferenceable(56) %this) #4 align 2 {
entry:
  %this.addr = alloca ptr, align 8
  store ptr %this, ptr %this.addr, align 8
  %this1 = load ptr, ptr %this.addr, align 8
  %add.ptr = getelementptr inbounds i8, ptr %this1, i64 32
  %call = call noundef nonnull align 8 dereferenceable(24) ptr @_ZNR4absl18container_internal25internal_compressed_tuple7StorageINS0_12_GLOBAL__N_112CheckedAllocINS0_7TrackedIiEELi5EEELm3ELb0EE3getEv(ptr noundef nonnull align 8 dereferenceable(24) %add.ptr)
  ret ptr %call
}

; Function Attrs: mustprogress uwtable
define internal void @_ZN4absl18container_internal20common_policy_traitsINS0_12_GLOBAL__N_16PolicyEvE8transferINS2_12CheckedAllocINS0_7TrackedIiEELi5EEEEEvPT_PS8_SC_(ptr noundef %alloc, ptr noundef %new_slot, ptr noundef %old_slot) #4 align 2 {
entry:
  %alloc.addr = alloca ptr, align 8
  %new_slot.addr = alloca ptr, align 8
  %old_slot.addr = alloca ptr, align 8
  store ptr %alloc, ptr %alloc.addr, align 8
  store ptr %new_slot, ptr %new_slot.addr, align 8
  store ptr %old_slot, ptr %old_slot.addr, align 8
  %0 = load ptr, ptr %alloc.addr, align 8
  %1 = load ptr, ptr %new_slot.addr, align 8
  %2 = load ptr, ptr %old_slot.addr, align 8
  call void @_ZN4absl18container_internal20common_policy_traitsINS0_12_GLOBAL__N_16PolicyEvE13transfer_implINS2_12CheckedAllocINS0_7TrackedIiEELi5EEES3_EEDTclsrT0_8transferfp_fp0_fp1_EEPT_PS8_SE_NS4_5Rank0E(ptr noundef %0, ptr noundef %1, ptr noundef %2)
  ret void
}

; Function Attrs: mustprogress uwtable
define internal noundef nonnull align 8 dereferenceable(24) ptr @_ZN4absl18container_internal12raw_hash_setINS0_12_GLOBAL__N_16PolicyENS2_8IdentityESt8equal_toIiENS2_12CheckedAllocINS0_7TrackedIiEELi5EEEE9alloc_refEv(ptr noundef nonnull align 8 dereferenceable(56) %this) #4 align 2 {
entry:
  %this.addr = alloca ptr, align 8
  store ptr %this, ptr %this.addr, align 8
  %this1 = load ptr, ptr %this.addr, align 8
  %settings_ = getelementptr inbounds %"class.absl::container_internal::raw_hash_set.137", ptr %this1, i32 0, i32 0
  %call = call noundef nonnull align 8 dereferenceable(24) ptr @_ZNR4absl18container_internal15CompressedTupleIJNS0_12CommonFieldsENS0_12_GLOBAL__N_18IdentityESt8equal_toIiENS3_12CheckedAllocINS0_7TrackedIiEELi5EEEEE3getILi3EEERNS0_25internal_compressed_tuple4ElemISB_XT_EE4typeEv(ptr noundef nonnull align 8 dereferenceable(56) %settings_)
  ret ptr %call
}

; Function Attrs: mustprogress uwtable
define internal void @_ZN4absl18container_internal12raw_hash_setINS0_12_GLOBAL__N_16PolicyENS2_8IdentityESt8equal_toIiENS2_12CheckedAllocINS0_7TrackedIiEELi5EEEE8transferEPS9_SC_(ptr noundef nonnull align 8 dereferenceable(56) %this, ptr noundef %to, ptr noundef %from) #4 align 2 {
entry:
  %this.addr = alloca ptr, align 8
  %to.addr = alloca ptr, align 8
  %from.addr = alloca ptr, align 8
  store ptr %this, ptr %this.addr, align 8
  store ptr %to, ptr %to.addr, align 8
  store ptr %from, ptr %from.addr, align 8
  %this1 = load ptr, ptr %this.addr, align 8
  %call = call noundef nonnull align 8 dereferenceable(24) ptr @_ZN4absl18container_internal12raw_hash_setINS0_12_GLOBAL__N_16PolicyENS2_8IdentityESt8equal_toIiENS2_12CheckedAllocINS0_7TrackedIiEELi5EEEE9alloc_refEv(ptr noundef nonnull align 8 dereferenceable(56) %this1)
  %0 = load ptr, ptr %to.addr, align 8
  %1 = load ptr, ptr %from.addr, align 8
  call void @_ZN4absl18container_internal20common_policy_traitsINS0_12_GLOBAL__N_16PolicyEvE8transferINS2_12CheckedAllocINS0_7TrackedIiEELi5EEEEEvPT_PS8_SC_(ptr noundef %call, ptr noundef %0, ptr noundef %1)
  ret void
}

; Function Attrs: mustprogress uwtable
define internal void @_ZN4absl18container_internal12raw_hash_setINS0_12_GLOBAL__N_16PolicyENS2_8IdentityESt8equal_toIiENS2_12CheckedAllocINS0_7TrackedIiEELi5EEEE16transfer_slot_fnEPvSC_SC_(ptr noundef %set, ptr noundef %dst, ptr noundef %src) #4 align 2 {
entry:
  %set.addr = alloca ptr, align 8
  %dst.addr = alloca ptr, align 8
  %src.addr = alloca ptr, align 8
  %h = alloca ptr, align 8
  store ptr %set, ptr %set.addr, align 8
  store ptr %dst, ptr %dst.addr, align 8
  store ptr %src, ptr %src.addr, align 8
  %0 = load ptr, ptr %set.addr, align 8
  store ptr %0, ptr %h, align 8
  %1 = load ptr, ptr %h, align 8
  %2 = load ptr, ptr %dst.addr, align 8
  %3 = load ptr, ptr %src.addr, align 8
  call void @_ZN4absl18container_internal12raw_hash_setINS0_12_GLOBAL__N_16PolicyENS2_8IdentityESt8equal_toIiENS2_12CheckedAllocINS0_7TrackedIiEELi5EEEE8transferEPS9_SC_(ptr noundef nonnull align 8 dereferenceable(56) %1, ptr noundef %2, ptr noundef %3)
  ret void
}